target datalayout = "e-m:e-p270:32:32-p271:32:32-p272:64:64-i64:64-i128:128-f80:128-n8:16:32:64-S128"
target triple = "x86_64-pc-linux-gnu"

@.str.739 = private unnamed_addr constant [39 x i8] c"_%d is reserved for numbered parameter\00", align 1

; Function Attrs: inlinehint nounwind sspstrong uwtable
define internal i32 @id_type(i64 noundef %0) #6 {
  %2 = alloca i32, align 4
  %3 = alloca i64, align 8
  store i64 %0, ptr %3, align 8, !tbaa !16
  %4 = load i64, ptr %3, align 8, !tbaa !16
  %5 = icmp ugt i64 %4, 170
  br i1 %5, label %6, label %10

6:                                                ; preds = %1
  %7 = load i64, ptr %3, align 8, !tbaa !16
  %8 = and i64 %7, 14
  %9 = trunc i64 %8 to i32
  store i32 %9, ptr %2, align 4
  br label %11

10:                                               ; preds = %1
  store i32 -1, ptr %2, align 4
  br label %11

11:                                               ; preds = %10, %6
  %12 = load i32, ptr %2, align 4
  ret i32 %12
}

; Function Attrs: nounwind sspstrong uwtable
define internal i32 @numparam_id_p(ptr noundef %0, i64 noundef %1) #0 {
  %3 = alloca i32, align 4
  %4 = alloca ptr, align 8
  %5 = alloca i64, align 8
  %6 = alloca i32, align 4
  store ptr %0, ptr %4, align 8, !tbaa !6
  store i64 %1, ptr %5, align 8, !tbaa !16
  %7 = load i64, ptr %5, align 8, !tbaa !16
  %8 = call i32 @id_type(i64 noundef %7)
  %9 = icmp eq i32 %8, 0
  br i1 %9, label %10, label %13

10:                                               ; preds = %2
  %11 = load i64, ptr %5, align 8, !tbaa !16
  %12 = icmp ult i64 %11, 3728
  br i1 %12, label %13, label %14

13:                                               ; preds = %10, %2
  store i32 0, ptr %3, align 4
  br label %27

14:                                               ; preds = %10
  call void @llvm.lifetime.start.p0(i64 4, ptr %6) #25
  %15 = load i64, ptr %5, align 8, !tbaa !16
  %16 = lshr i64 %15, 4
  %17 = sub i64 %16, 232
  %18 = trunc i64 %17 to i32
  store i32 %18, ptr %6, align 4, !tbaa !14
  %19 = load i32, ptr %6, align 4, !tbaa !14
  %20 = icmp ugt i32 %19, 0
  br i1 %20, label %21, label %24

21:                                               ; preds = %14
  %22 = load i32, ptr %6, align 4, !tbaa !14
  %23 = icmp ule i32 %22, 9
  br label %24

24:                                               ; preds = %21, %14
  %25 = phi i1 [ false, %14 ], [ %23, %21 ]
  %26 = zext i1 %25 to i32
  store i32 %26, ptr %3, align 4
  call void @llvm.lifetime.end.p0(i64 4, ptr %6) #25
  br label %27

27:                                               ; preds = %24, %13
  %28 = load i32, ptr %3, align 4
  ret i32 %28
}

; Function Attrs: nounwind sspstrong uwtable
define internal void @numparam_name(ptr noundef %0, i64 noundef %1) #0 {
  %3 = alloca ptr, align 8
  %4 = alloca i64, align 8
  store ptr %0, ptr %3, align 8, !tbaa !6
  store i64 %1, ptr %4, align 8, !tbaa !16
  %5 = load ptr, ptr %3, align 8, !tbaa !6
  %6 = load i64, ptr %4, align 8, !tbaa !16
  %7 = call i32 @numparam_id_p(ptr noundef %5, i64 noundef %6)
  %8 = icmp ne i32 %7, 0
  br i1 %8, label %10, label %9

9:                                                ; preds = %2
  br label %16

10:                                               ; preds = %2
  %11 = load ptr, ptr %3, align 8, !tbaa !6
  %12 = load i64, ptr %4, align 8, !tbaa !16
  %13 = lshr i64 %12, 4
  %14 = sub i64 %13, 232
  %15 = trunc i64 %14 to i32
  call void (ptr, ptr, ...) @ripper_compile_error(ptr noundef %11, ptr noundef @.str.739, i32 noundef %15)
  br label %16

16:                                               ; preds = %10, %9
  ret void
}