; Function Attrs: nounwind sspstrong uwtable
define internal fastcc void @numparam_name(ptr noundef %0, i64 noundef %1) unnamed_addr #0 {
  %3 = and i64 %1, 14
  %4 = icmp ne i64 %3, 0
  %5 = icmp ult i64 %1, 3728
  %6 = lshr i64 %1, 4
  %7 = trunc i64 %6 to i32
  %8 = add i32 %7, -242
  %9 = icmp ult i32 %8, -9
  %.not6 = or i1 %4, %9
  %narrow.i.not = or i1 %5, %.not6
  br i1 %narrow.i.not, label %12, label %10

10:                                               ; preds = %2
  %11 = add nsw i32 %7, -232
  tail call void (ptr, ptr, ...) @ripper_compile_error(ptr noundef %0, ptr noundef nonnull @.str.739, i32 noundef %11) #31
  br label %12

12:                                               ; preds = %2, %10
  ret void
}